target datalayout = "e-m:e-p270:32:32-p271:32:32-p272:64:64-i64:64-i128:128-f80:128-n8:16:32:64-S128"
target triple = "x86_64-pc-linux-gnu"

%"class.std::basic_string_view" = type { i64, ptr }
%"class.absl::substitute_internal::Arg" = type { %"class.std::basic_string_view", [32 x i8] }
%"struct.absl::Dec" = type <{ i64, i8, i8, i8, [5 x i8] }>

; Function Attrs: inlinehint mustprogress nounwind uwtable
define linkonce_odr dso_local void @_ZSt9__fill_a1IcEN9__gnu_cxx11__enable_ifIXsr9__is_byteIT_EE7__valueEvE6__typeEPS2_S5_RKS2_(ptr noundef %0, ptr noundef %1, ptr noundef nonnull align 1 dereferenceable(1) %2) #3 comdat {
  %4 = alloca ptr, align 8
  %5 = alloca ptr, align 8
  %6 = alloca ptr, align 8
  %7 = alloca i8, align 1
  %8 = alloca i64, align 8
  store ptr %0, ptr %4, align 8, !tbaa !18
  store ptr %1, ptr %5, align 8, !tbaa !18
  store ptr %2, ptr %6, align 8, !tbaa !18
  call void @llvm.lifetime.start.p0(i64 1, ptr %7) #14
  %9 = load ptr, ptr %6, align 8, !tbaa !18
  %10 = load i8, ptr %9, align 1, !tbaa !13
  store i8 %10, ptr %7, align 1, !tbaa !13
  call void @llvm.lifetime.start.p0(i64 8, ptr %8) #14
  %11 = load ptr, ptr %5, align 8, !tbaa !18
  %12 = load ptr, ptr %4, align 8, !tbaa !18
  %13 = ptrtoint ptr %11 to i64
  %14 = ptrtoint ptr %12 to i64
  %15 = sub i64 %13, %14
  store i64 %15, ptr %8, align 8, !tbaa !11
  %16 = load i64, ptr %8, align 8, !tbaa !11
  %17 = icmp ne i64 %16, 0
  br i1 %17, label %18, label %24

18:                                               ; preds = %3
  %19 = load ptr, ptr %4, align 8, !tbaa !18
  %20 = load i8, ptr %7, align 1, !tbaa !13
  %21 = zext i8 %20 to i32
  %22 = trunc i32 %21 to i8
  %23 = load i64, ptr %8, align 8, !tbaa !11
  call void @llvm.memset.p0.i64(ptr align 1 %19, i8 %22, i64 %23, i1 false)
  br label %24

24:                                               ; preds = %18, %3
  call void @llvm.lifetime.end.p0(i64 8, ptr %8) #14
  call void @llvm.lifetime.end.p0(i64 1, ptr %7) #14
  ret void
}

; Function Attrs: inlinehint mustprogress uwtable
define linkonce_odr dso_local void @_ZSt8__fill_aIPccEvT_S1_RKT0_(ptr noundef %0, ptr noundef %1, ptr noundef nonnull align 1 dereferenceable(1) %2) #6 comdat {
  %4 = alloca ptr, align 8
  %5 = alloca ptr, align 8
  %6 = alloca ptr, align 8
  store ptr %0, ptr %4, align 8, !tbaa !18
  store ptr %1, ptr %5, align 8, !tbaa !18
  store ptr %2, ptr %6, align 8, !tbaa !18
  %7 = load ptr, ptr %4, align 8, !tbaa !18
  %8 = load ptr, ptr %5, align 8, !tbaa !18
  %9 = load ptr, ptr %6, align 8, !tbaa !18
  call void @_ZSt9__fill_a1IcEN9__gnu_cxx11__enable_ifIXsr9__is_byteIT_EE7__valueEvE6__typeEPS2_S5_RKS2_(ptr noundef %7, ptr noundef %8, ptr noundef nonnull align 1 dereferenceable(1) %9)
  ret void
}

; Function Attrs: inlinehint mustprogress uwtable
define linkonce_odr dso_local noundef ptr @_ZSt10__fill_n_aIPclcET_S1_T0_RKT1_St26random_access_iterator_tag(ptr noundef %0, i64 noundef %1, ptr noundef nonnull align 1 dereferenceable(1) %2) #6 comdat {
  %4 = alloca ptr, align 8
  %5 = alloca ptr, align 8
  %6 = alloca i64, align 8
  %7 = alloca ptr, align 8
  store ptr %0, ptr %5, align 8, !tbaa !18
  store i64 %1, ptr %6, align 8, !tbaa !11
  store ptr %2, ptr %7, align 8, !tbaa !18
  %8 = load i64, ptr %6, align 8, !tbaa !11
  %9 = icmp sle i64 %8, 0
  br i1 %9, label %10, label %12

10:                                               ; preds = %3
  %11 = load ptr, ptr %5, align 8, !tbaa !18
  store ptr %11, ptr %4, align 8
  br label %21

12:                                               ; preds = %3
  %13 = load ptr, ptr %5, align 8, !tbaa !18
  %14 = load ptr, ptr %5, align 8, !tbaa !18
  %15 = load i64, ptr %6, align 8, !tbaa !11
  %16 = getelementptr inbounds i8, ptr %14, i64 %15
  %17 = load ptr, ptr %7, align 8, !tbaa !18
  call void @_ZSt8__fill_aIPccEvT_S1_RKT0_(ptr noundef %13, ptr noundef %16, ptr noundef nonnull align 1 dereferenceable(1) %17)
  %18 = load ptr, ptr %5, align 8, !tbaa !18
  %19 = load i64, ptr %6, align 8, !tbaa !11
  %20 = getelementptr inbounds i8, ptr %18, i64 %19
  store ptr %20, ptr %4, align 8
  br label %21

21:                                               ; preds = %12, %10
  %22 = load ptr, ptr %4, align 8
  ret ptr %22
}

; Function Attrs: inlinehint mustprogress nounwind uwtable
define linkonce_odr dso_local void @_ZSt19__iterator_categoryIPcENSt15iterator_traitsIT_E17iterator_categoryERKS2_(ptr noundef nonnull align 8 dereferenceable(8) %0) #3 comdat {
  %2 = alloca ptr, align 8
  store ptr %0, ptr %2, align 8, !tbaa !35
  ret void
}

; Function Attrs: inlinehint mustprogress nounwind uwtable
define linkonce_odr dso_local noundef i64 @_ZSt17__size_to_integerl(i64 noundef %0) #3 comdat {
  %2 = alloca i64, align 8
  store i64 %0, ptr %2, align 8, !tbaa !11
  %3 = load i64, ptr %2, align 8, !tbaa !11
  ret i64 %3
}

; Function Attrs: mustprogress nounwind uwtable
define linkonce_odr dso_local void @_ZNSt17basic_string_viewIcSt11char_traitsIcEEC2EPKcm(ptr noundef nonnull align 8 dereferenceable(16) %0, ptr noundef %1, i64 noundef %2) unnamed_addr #2 comdat align 2 {
  %4 = alloca ptr, align 8
  %5 = alloca ptr, align 8
  %6 = alloca i64, align 8
  store ptr %0, ptr %4, align 8, !tbaa !9
  store ptr %1, ptr %5, align 8, !tbaa !18
  store i64 %2, ptr %6, align 8, !tbaa !11
  %7 = load ptr, ptr %4, align 8
  %8 = getelementptr inbounds nuw %"class.std::basic_string_view", ptr %7, i32 0, i32 0
  %9 = load i64, ptr %6, align 8, !tbaa !11
  store i64 %9, ptr %8, align 8, !tbaa !24
  %10 = getelementptr inbounds nuw %"class.std::basic_string_view", ptr %7, i32 0, i32 1
  %11 = load ptr, ptr %5, align 8, !tbaa !18
  store ptr %11, ptr %10, align 8, !tbaa !26
  ret void
}

; Function Attrs: inlinehint mustprogress uwtable
define linkonce_odr dso_local noundef ptr @_ZSt6fill_nIPclcET_S1_T0_RKT1_(ptr noundef %0, i64 noundef %1, ptr noundef nonnull align 1 dereferenceable(1) %2) #6 comdat {
  %4 = alloca ptr, align 8
  %5 = alloca i64, align 8
  %6 = alloca ptr, align 8
  store ptr %0, ptr %4, align 8, !tbaa !18
  store i64 %1, ptr %5, align 8, !tbaa !11
  store ptr %2, ptr %6, align 8, !tbaa !18
  %7 = load ptr, ptr %4, align 8, !tbaa !18
  %8 = load i64, ptr %5, align 8, !tbaa !11
  %9 = call noundef i64 @_ZSt17__size_to_integerl(i64 noundef %8)
  %10 = load ptr, ptr %6, align 8, !tbaa !18
  call void @_ZSt19__iterator_categoryIPcENSt15iterator_traitsIT_E17iterator_categoryERKS2_(ptr noundef nonnull align 8 dereferenceable(8) %4)
  %11 = call noundef ptr @_ZSt10__fill_n_aIPclcET_S1_T0_RKT1_St26random_access_iterator_tag(ptr noundef %7, i64 noundef %9, ptr noundef nonnull align 1 dereferenceable(1) %10)
  ret ptr %11
}

; Function Attrs: mustprogress nounwind uwtable
define linkonce_odr dso_local void @_ZNSt17basic_string_viewIcSt11char_traitsIcEEC2Ev(ptr noundef nonnull align 8 dereferenceable(16) %0) unnamed_addr #2 comdat align 2 {
  %2 = alloca ptr, align 8
  store ptr %0, ptr %2, align 8, !tbaa !9
  %3 = load ptr, ptr %2, align 8
  %4 = getelementptr inbounds nuw %"class.std::basic_string_view", ptr %3, i32 0, i32 0
  store i64 0, ptr %4, align 8, !tbaa !24
  %5 = getelementptr inbounds nuw %"class.std::basic_string_view", ptr %3, i32 0, i32 1
  store ptr null, ptr %5, align 8, !tbaa !26
  ret void
}

; Function Attrs: mustprogress uwtable
define dso_local void @_ZN4absl19substitute_internal3ArgC2ENS_3DecE(ptr noundef nonnull align 8 dereferenceable(48) %0, i64 %1, i64 %2) unnamed_addr #0 align 2 {
  %4 = alloca %"struct.absl::Dec", align 8
  %5 = alloca ptr, align 8
  %6 = alloca ptr, align 8
  %7 = alloca ptr, align 8
  %8 = alloca ptr, align 8
  %9 = alloca i64, align 8
  %10 = alloca i8, align 1
  %11 = alloca i64, align 8
  %12 = alloca i8, align 1
  %13 = alloca %"class.std::basic_string_view", align 8
  %14 = getelementptr inbounds nuw { i64, i64 }, ptr %4, i32 0, i32 0
  store i64 %1, ptr %14, align 8
  %15 = getelementptr inbounds nuw { i64, i64 }, ptr %4, i32 0, i32 1
  store i64 %2, ptr %15, align 8
  store ptr %0, ptr %5, align 8, !tbaa !39
  %16 = load ptr, ptr %5, align 8
  %17 = getelementptr inbounds nuw %"class.absl::substitute_internal::Arg", ptr %16, i32 0, i32 0
  call void @_ZNSt17basic_string_viewIcSt11char_traitsIcEEC2Ev(ptr noundef nonnull align 8 dereferenceable(16) %17) #14
  call void @llvm.lifetime.start.p0(i64 8, ptr %6) #14
  %18 = getelementptr inbounds nuw %"class.absl::substitute_internal::Arg", ptr %16, i32 0, i32 1
  %19 = getelementptr inbounds [32 x i8], ptr %18, i64 0, i64 32
  store ptr %19, ptr %6, align 8, !tbaa !18
  call void @llvm.lifetime.start.p0(i64 8, ptr %7) #14
  %20 = load ptr, ptr %6, align 8, !tbaa !18
  %21 = getelementptr inbounds nuw %"struct.absl::Dec", ptr %4, i32 0, i32 1
  %22 = load i8, ptr %21, align 8, !tbaa !46
  %23 = zext i8 %22 to i32
  %24 = sext i32 %23 to i64
  %25 = sub i64 0, %24
  %26 = getelementptr inbounds i8, ptr %20, i64 %25
  store ptr %26, ptr %7, align 8, !tbaa !18
  call void @llvm.lifetime.start.p0(i64 8, ptr %8) #14
  %27 = load ptr, ptr %6, align 8, !tbaa !18
  store ptr %27, ptr %8, align 8, !tbaa !18
  call void @llvm.lifetime.start.p0(i64 8, ptr %9) #14
  %28 = getelementptr inbounds nuw %"struct.absl::Dec", ptr %4, i32 0, i32 0
  %29 = load i64, ptr %28, align 8, !tbaa !49
  store i64 %29, ptr %9, align 8, !tbaa !11
  call void @llvm.lifetime.start.p0(i64 1, ptr %10) #14
  %30 = getelementptr inbounds nuw %"struct.absl::Dec", ptr %4, i32 0, i32 3
  %31 = load i8, ptr %30, align 2, !tbaa !50, !range !51, !noundef !52
  %32 = trunc i8 %31 to i1
  %33 = zext i1 %32 to i8
  store i8 %33, ptr %10, align 1, !tbaa !53
  br label %34

34:                                               ; preds = %37, %3
  %35 = load i64, ptr %9, align 8, !tbaa !11
  %36 = icmp ugt i64 %35, 9
  br i1 %36, label %37, label %46

37:                                               ; preds = %34
  %38 = load i64, ptr %9, align 8, !tbaa !11
  %39 = urem i64 %38, 10
  %40 = add i64 48, %39
  %41 = trunc i64 %40 to i8
  %42 = load ptr, ptr %8, align 8, !tbaa !18
  %43 = getelementptr inbounds i8, ptr %42, i32 -1
  store ptr %43, ptr %8, align 8, !tbaa !18
  store i8 %41, ptr %43, align 1, !tbaa !13
  %44 = load i64, ptr %9, align 8, !tbaa !11
  %45 = udiv i64 %44, 10
  store i64 %45, ptr %9, align 8, !tbaa !11
  br label %34, !llvm.loop !54

46:                                               ; preds = %34
  %47 = load i64, ptr %9, align 8, !tbaa !11
  %48 = trunc i64 %47 to i8
  %49 = sext i8 %48 to i32
  %50 = add nsw i32 48, %49
  %51 = trunc i32 %50 to i8
  %52 = load ptr, ptr %8, align 8, !tbaa !18
  %53 = getelementptr inbounds i8, ptr %52, i32 -1
  store ptr %53, ptr %8, align 8, !tbaa !18
  store i8 %51, ptr %53, align 1, !tbaa !13
  %54 = load i8, ptr %10, align 1, !tbaa !53, !range !51, !noundef !52
  %55 = trunc i8 %54 to i1
  br i1 %55, label %56, label %59

56:                                               ; preds = %46
  %57 = load ptr, ptr %8, align 8, !tbaa !18
  %58 = getelementptr inbounds i8, ptr %57, i32 -1
  store ptr %58, ptr %8, align 8, !tbaa !18
  store i8 45, ptr %58, align 1, !tbaa !13
  br label %59

59:                                               ; preds = %56, %46
  call void @llvm.lifetime.start.p0(i64 8, ptr %11) #14
  %60 = load ptr, ptr %8, align 8, !tbaa !18
  %61 = load ptr, ptr %7, align 8, !tbaa !18
  %62 = ptrtoint ptr %60 to i64
  %63 = ptrtoint ptr %61 to i64
  %64 = sub i64 %62, %63
  store i64 %64, ptr %11, align 8, !tbaa !11
  %65 = load i64, ptr %11, align 8, !tbaa !11
  %66 = icmp sgt i64 %65, 0
  br i1 %66, label %67, label %93

67:                                               ; preds = %59
  call void @llvm.lifetime.start.p0(i64 1, ptr %12) #14
  store i8 0, ptr %12, align 1, !tbaa !53
  %68 = load i8, ptr %10, align 1, !tbaa !53, !range !51, !noundef !52
  %69 = trunc i8 %68 to i1
  br i1 %69, label %70, label %78

70:                                               ; preds = %67
  %71 = getelementptr inbounds nuw %"struct.absl::Dec", ptr %4, i32 0, i32 2
  %72 = load i8, ptr %71, align 1, !tbaa !55
  %73 = sext i8 %72 to i32
  %74 = icmp eq i32 %73, 48
  br i1 %74, label %75, label %78

75:                                               ; preds = %70
  %76 = load ptr, ptr %8, align 8, !tbaa !18
  %77 = getelementptr inbounds nuw i8, ptr %76, i32 1
  store ptr %77, ptr %8, align 8, !tbaa !18
  store i8 1, ptr %12, align 1, !tbaa !53
  br label %78

78:                                               ; preds = %75, %70, %67
  %79 = load i64, ptr %11, align 8, !tbaa !11
  %80 = load ptr, ptr %8, align 8, !tbaa !18
  %81 = sub i64 0, %79
  %82 = getelementptr inbounds i8, ptr %80, i64 %81
  store ptr %82, ptr %8, align 8, !tbaa !18
  %83 = load ptr, ptr %8, align 8, !tbaa !18
  %84 = load i64, ptr %11, align 8, !tbaa !11
  %85 = getelementptr inbounds nuw %"struct.absl::Dec", ptr %4, i32 0, i32 2
  %86 = call noundef ptr @_ZSt6fill_nIPclcET_S1_T0_RKT1_(ptr noundef %83, i64 noundef %84, ptr noundef nonnull align 1 dereferenceable(1) %85)
  %87 = load i8, ptr %12, align 1, !tbaa !53, !range !51, !noundef !52
  %88 = trunc i8 %87 to i1
  br i1 %88, label %89, label %92

89:                                               ; preds = %78
  %90 = load ptr, ptr %8, align 8, !tbaa !18
  %91 = getelementptr inbounds i8, ptr %90, i32 -1
  store ptr %91, ptr %8, align 8, !tbaa !18
  store i8 45, ptr %91, align 1, !tbaa !13
  br label %92

92:                                               ; preds = %89, %78
  call void @llvm.lifetime.end.p0(i64 1, ptr %12) #14
  br label %93

93:                                               ; preds = %92, %59
  call void @llvm.lifetime.start.p0(i64 16, ptr %13) #14
  %94 = load ptr, ptr %8, align 8, !tbaa !18
  %95 = load ptr, ptr %6, align 8, !tbaa !18
  %96 = load ptr, ptr %8, align 8, !tbaa !18
  %97 = ptrtoint ptr %95 to i64
  %98 = ptrtoint ptr %96 to i64
  %99 = sub i64 %97, %98
  call void @_ZNSt17basic_string_viewIcSt11char_traitsIcEEC2EPKcm(ptr noundef nonnull align 8 dereferenceable(16) %13, ptr noundef %94, i64 noundef %99) #14
  %100 = getelementptr inbounds nuw %"class.absl::substitute_internal::Arg", ptr %16, i32 0, i32 0
  call void @llvm.memcpy.p0.p0.i64(ptr align 8 %100, ptr align 8 %13, i64 16, i1 false), !tbaa.struct !22
  call void @llvm.lifetime.end.p0(i64 16, ptr %13) #14
  call void @llvm.lifetime.end.p0(i64 8, ptr %11) #14
  call void @llvm.lifetime.end.p0(i64 1, ptr %10) #14
  call void @llvm.lifetime.end.p0(i64 8, ptr %9) #14
  call void @llvm.lifetime.end.p0(i64 8, ptr %8) #14
  call void @llvm.lifetime.end.p0(i64 8, ptr %7) #14
  call void @llvm.lifetime.end.p0(i64 8, ptr %6) #14
  ret void
}