; Function Attrs: mustprogress nofree norecurse nosync nounwind memory(argmem: write) uwtable
define dso_local void @_ZN4absl19substitute_internal3ArgC2ENS_3DecE(ptr noundef nonnull align 8 dereferenceable(48) %0, i64 %1, i64 %2) unnamed_addr #3 align 2 {
  %.sroa.431.8.extract.shift = lshr i64 %2, 8
  %.sroa.431.8.extract.trunc = trunc i64 %.sroa.431.8.extract.shift to i8
  %4 = getelementptr inbounds nuw i8, ptr %0, i64 48
  %5 = and i64 %2, 255
  %6 = sub nsw i64 0, %5
  %7 = getelementptr inbounds i8, ptr %4, i64 %6
  %8 = and i64 %2, 65536
  %9 = icmp ne i64 %8, 0
  %10 = icmp ugt i64 %1, 9
  br i1 %10, label %.lr.ph, label %._crit_edge

.lr.ph:                                           ; preds = %3, %.lr.ph
  %.02734 = phi ptr [ %14, %.lr.ph ], [ %4, %3 ]
  %.02833 = phi i64 [ %15, %.lr.ph ], [ %1, %3 ]
  %11 = urem i64 %.02833, 10
  %12 = trunc nuw nsw i64 %11 to i8
  %13 = or disjoint i8 %12, 48
  %14 = getelementptr inbounds i8, ptr %.02734, i64 -1
  store i8 %13, ptr %14, align 1, !tbaa !4
  %15 = udiv i64 %.02833, 10
  %16 = icmp ugt i64 %.02833, 99
  br i1 %16, label %.lr.ph, label %._crit_edge, !llvm.loop !25

._crit_edge:                                      ; preds = %.lr.ph, %3
  %.028.lcssa = phi i64 [ %1, %3 ], [ %15, %.lr.ph ]
  %.027.lcssa = phi ptr [ %4, %3 ], [ %14, %.lr.ph ]
  %17 = trunc nuw i64 %.028.lcssa to i8
  %18 = or disjoint i8 %17, 48
  %19 = getelementptr inbounds i8, ptr %.027.lcssa, i64 -1
  store i8 %18, ptr %19, align 1, !tbaa !4
  br i1 %9, label %20, label %22

20:                                               ; preds = %._crit_edge
  %21 = getelementptr inbounds i8, ptr %.027.lcssa, i64 -2
  store i8 45, ptr %21, align 1, !tbaa !4
  br label %22

22:                                               ; preds = %20, %._crit_edge
  %.1 = phi ptr [ %21, %20 ], [ %19, %._crit_edge ]
  %23 = ptrtoint ptr %.1 to i64
  %24 = ptrtoint ptr %7 to i64
  %25 = sub i64 %23, %24
  %26 = icmp sgt i64 %25, 0
  br i1 %26, label %_ZSt6fill_nIPclcET_S1_T0_RKT1_.exit, label %32

_ZSt6fill_nIPclcET_S1_T0_RKT1_.exit:              ; preds = %22
  %27 = icmp eq i8 %.sroa.431.8.extract.trunc, 48
  %or.cond = select i1 %9, i1 %27, i1 false
  %spec.select.idx = zext i1 %or.cond to i64
  %spec.select = getelementptr inbounds nuw i8, ptr %.1, i64 %spec.select.idx
  %28 = sub nsw i64 0, %25
  %29 = getelementptr inbounds i8, ptr %spec.select, i64 %28
  tail call void @llvm.memset.p0.i64(ptr nonnull align 1 %29, i8 %.sroa.431.8.extract.trunc, i64 %25, i1 false)
  br i1 %or.cond, label %30, label %32

30:                                               ; preds = %_ZSt6fill_nIPclcET_S1_T0_RKT1_.exit
  %31 = getelementptr inbounds i8, ptr %29, i64 -1
  store i8 45, ptr %31, align 1, !tbaa !4
  br label %32

32:                                               ; preds = %_ZSt6fill_nIPclcET_S1_T0_RKT1_.exit, %30, %22
  %.2 = phi ptr [ %.1, %22 ], [ %31, %30 ], [ %29, %_ZSt6fill_nIPclcET_S1_T0_RKT1_.exit ]
  %33 = ptrtoint ptr %4 to i64
  %34 = ptrtoint ptr %.2 to i64
  %35 = sub i64 %33, %34
  store i64 %35, ptr %0, align 8, !tbaa !19
  %.sroa.4.0..sroa_idx = getelementptr inbounds nuw i8, ptr %0, i64 8
  store ptr %.2, ptr %.sroa.4.0..sroa_idx, align 8, !tbaa !20
  ret void
}